EXPORTS
__bbAbs=?_bbAbs@@YGHH@Z
__bbArrayBoundsEx=?_bbArrayBoundsEx@@YGXXZ
__bbCStrToStr=?_bbCStrToStr@@YGPAUBBStr@@PBD@Z
__bbDebugEnter=?_bbDebugEnter@@YGXPAX0PBD@Z
__bbDebugLeave=?_bbDebugLeave@@YGXXZ
__bbDebugStmt=?_bbDebugStmt@@YGXHPBD@Z
__bbDimArray=?_bbDimArray@@YGXPAUBBArray@@@Z
__bbFAbs=?_bbFAbs@@YGMM@Z
__bbFMod=?_bbFMod@@YGMMM@Z
__bbFPow=?_bbFPow@@YGMMM@Z
__bbFSgn=?_bbFSgn@@YGMM@Z
__bbLoadLibs=?_bbLoadLibs@@YGXPAD@Z
__bbMod=?_bbMod@@YGHHH@Z
__bbNullObjEx=?_bbNullObjEx@@YGXXZ
__bbObjCompare=?_bbObjCompare@@YGHPAUBBObj@@0@Z
__bbObjDelete=?_bbObjDelete@@YGXPAUBBObj@@@Z
__bbObjDeleteEach=?_bbObjDeleteEach@@YGXPAUBBObjType@@@Z
__bbObjEachFirst2=?_bbObjEachFirst2@@YGHPAPAUBBObj@@PAUBBObjType@@@Z
__bbObjEachFirst=?_bbObjEachFirst@@YGHPAPAUBBObj@@PAUBBObjType@@@Z
__bbObjEachNext2=?_bbObjEachNext2@@YGHPAPAUBBObj@@@Z
__bbObjEachNext=?_bbObjEachNext@@YGHPAPAUBBObj@@@Z
__bbObjFirst=?_bbObjFirst@@YGPAUBBObj@@PAUBBObjType@@@Z
__bbObjFromHandle=?_bbObjFromHandle@@YGPAUBBObj@@HPAUBBObjType@@@Z
__bbObjInsAfter=?_bbObjInsAfter@@YGXPAUBBObj@@0@Z
__bbObjInsBefore=?_bbObjInsBefore@@YGXPAUBBObj@@0@Z
__bbObjLast=?_bbObjLast@@YGPAUBBObj@@PAUBBObjType@@@Z
__bbObjNew=?_bbObjNew@@YGPAUBBObj@@PAUBBObjType@@@Z
__bbObjNext=?_bbObjNext@@YGPAUBBObj@@PAU1@@Z
__bbObjPrev=?_bbObjPrev@@YGPAUBBObj@@PAU1@@Z
__bbObjRelease=?_bbObjRelease@@YGXPAUBBObj@@@Z
__bbObjStore=?_bbObjStore@@YGXPAPAUBBObj@@PAU1@@Z
__bbObjToHandle=?_bbObjToHandle@@YGHPAUBBObj@@@Z
__bbObjToStr=?_bbObjToStr@@YGPAUBBStr@@PAUBBObj@@@Z
__bbReadFloat=?_bbReadFloat@@YGMXZ
__bbReadInt=?_bbReadInt@@YGHXZ
__bbReadStr=?_bbReadStr@@YGPAUBBStr@@XZ
__bbRestore=?_bbRestore@@YGXPAUBBData@@@Z
__bbSgn=?_bbSgn@@YGHH@Z
__bbStrCompare=?_bbStrCompare@@YGHPAUBBStr@@0@Z
__bbStrConcat=?_bbStrConcat@@YGPAUBBStr@@PAU1@0@Z
__bbStrConst=?_bbStrConst@@YGPAUBBStr@@PBD@Z
__bbStrFromFloat=?_bbStrFromFloat@@YGPAUBBStr@@M@Z
__bbStrFromInt=?_bbStrFromInt@@YGPAUBBStr@@H@Z
__bbStrLoad=?_bbStrLoad@@YGPAUBBStr@@PAPAU1@@Z
__bbStrRelease=?_bbStrRelease@@YGXPAUBBStr@@@Z
__bbStrStore=?_bbStrStore@@YGXPAPAUBBStr@@PAU1@@Z
__bbStrToCStr=?_bbStrToCStr@@YGPBDPAUBBStr@@@Z
__bbStrToFloat=?_bbStrToFloat@@YGMPAUBBStr@@@Z
__bbStrToInt=?_bbStrToInt@@YGHPAUBBStr@@@Z
__bbUndimArray=?_bbUndimArray@@YGXPAUBBArray@@@Z
__bbVecAlloc=?_bbVecAlloc@@YGPAXPAUBBVecType@@@Z
__bbVecBoundsEx=?_bbVecBoundsEx@@YGXXZ
__bbVecFree=?_bbVecFree@@YGXPAXPAUBBVecType@@@Z
_faccepttcpstream=?bbAcceptTCPStream@@YGPAVTCPStream@@PAVTCPServer@@@Z
_facos=?bbACos@@YGMM@Z
_factivetextures=?bbActiveTextures@@YGHXZ
_faddanimseq=?bbAddAnimSeq@@YGHPAVObject@@H@Z
_faddmesh=?bbAddMesh@@YGXPAVMeshModel@@0@Z
_faddtriangle=?bbAddTriangle@@YGHPAVSurface@@HHH@Z
_faddvertex=?bbAddVertex@@YGHPAVSurface@@MMMMMM@Z
_faligntovector=?bbAlignToVector@@YGXPAVEntity@@MMMHM@Z
_fambientlight=?bbAmbientLight@@YGXMMM@Z
_fanimate=?bbAnimate@@YGXPAVObject@@HMHM@Z
_fanimatemd2=?bbAnimateMD2@@YGXPAVMD2Model@@HMHHM@Z
_fanimating=?bbAnimating@@YGHPAVObject@@@Z
_fanimlength=?bbAnimLength@@YGHPAVObject@@@Z
_fanimseq=?bbAnimSeq@@YGHPAVObject@@@Z
_fanimtime=?bbAnimTime@@YGMPAVObject@@@Z
_fantialias=?bbAntiAlias@@YGXH@Z
_fapptitle=?bbAppTitle@@YGXPAUBBStr@@0@Z
_fasc=?bbAsc@@YGHPAUBBStr@@@Z
_fasin=?bbASin@@YGMM@Z
_fatan2=?bbATan2@@YGMMM@Z
_fatan=?bbATan@@YGMM@Z
_fautomidhandle=?bbAutoMidHandle@@YGXH@Z
_favailvidmem=?bbAvailVidMem@@YGHXZ
_fbackbuffer=?bbBackBuffer@@YGPAVgxCanvas@@XZ
_fbanksize=?bbBankSize@@YGHPAUbbBank@@@Z
_fbin=?bbBin@@YGPAUBBStr@@H@Z
_fbrushalpha=?bbBrushAlpha@@YGXPAVBrush@@M@Z
_fbrushblend=?bbBrushBlend@@YGXPAVBrush@@H@Z
_fbrushcolor=?bbBrushColor@@YGXPAVBrush@@MMM@Z
_fbrushfx=?bbBrushFX@@YGXPAVBrush@@H@Z
_fbrushshininess=?bbBrushShininess@@YGXPAVBrush@@M@Z
_fbrushtexture=?bbBrushTexture@@YGXPAVBrush@@PAVTexture@@HH@Z
_fbspambientlight=?bbBSPAmbientLight@@YGXPAVQ3BSPModel@@MMM@Z
_fbsplighting=?bbBSPLighting@@YGXPAVQ3BSPModel@@H@Z
_fbufferdirty=?bbBufferDirty@@YGXPAVgxCanvas@@@Z
_fcalldll=?bbCallDLL@@YGHPAUBBStr@@0PAUbbBank@@1@Z
_fcameraclscolor=?bbCameraClsColor@@YGXPAVCamera@@MMM@Z
_fcameraclsmode=?bbCameraClsMode@@YGXPAVCamera@@HH@Z
_fcamerafogcolor=?bbCameraFogColor@@YGXPAVCamera@@MMM@Z
_fcamerafogmode=?bbCameraFogMode@@YGXPAVCamera@@H@Z
_fcamerafogrange=?bbCameraFogRange@@YGXPAVCamera@@MM@Z
_fcamerapick=?bbCameraPick@@YGPAVEntity@@PAVCamera@@MM@Z
_fcameraproject=?bbCameraProject@@YGHPAVCamera@@MMM@Z
_fcameraprojmode=?bbCameraProjMode@@YGXPAVCamera@@H@Z
_fcamerarange=?bbCameraRange@@YGXPAVCamera@@MM@Z
_fcameraviewport=?bbCameraViewport@@YGXPAVCamera@@HHHH@Z
_fcamerazoom=?bbCameraZoom@@YGXPAVCamera@@M@Z
_fcaptureworld=?bbCaptureWorld@@YGXXZ
_fceil=?bbCeil@@YGMM@Z
_fchangedir=?bbChangeDir@@YGXPAUBBStr@@@Z
_fchannelpan=?bbChannelPan@@YGXPAVgxChannel@@M@Z
_fchannelpitch=?bbChannelPitch@@YGXPAVgxChannel@@H@Z
_fchannelplaying=?bbChannelPlaying@@YGHPAVgxChannel@@@Z
_fchannelvolume=?bbChannelVolume@@YGXPAVgxChannel@@M@Z
_fchr=?bbChr@@YGPAUBBStr@@H@Z
_fclearcollisions=?bbClearCollisions@@YGXXZ
_fclearsurface=?bbClearSurface@@YGXPAVSurface@@HH@Z
_fcleartexturefilters=?bbClearTextureFilters@@YGXXZ
_fclearworld=?bbClearWorld@@YGXHHH@Z
_fclosedir=?bbCloseDir@@YGXPAVgxDir@@@Z
_fclosefile=?bbCloseFile@@YGXPAUbbFile@@@Z
_fclosemovie=?bbCloseMovie@@YGXPAVgxMovie@@@Z
_fclosetcpserver=?bbCloseTCPServer@@YGXPAVTCPServer@@@Z
_fclosetcpstream=?bbCloseTCPStream@@YGXPAVTCPStream@@@Z
_fcloseudpstream=?bbCloseUDPStream@@YGXPAVUDPStream@@@Z
_fcls=?bbCls@@YGXXZ
_fclscolor=?bbClsColor@@YGXHHH@Z
_fcollisionentity=?bbCollisionEntity@@YGPAVObject@@PAV1@H@Z
_fcollisionnx=?bbCollisionNX@@YGMPAVObject@@H@Z
_fcollisionny=?bbCollisionNY@@YGMPAVObject@@H@Z
_fcollisionnz=?bbCollisionNZ@@YGMPAVObject@@H@Z
_fcollisions=?bbCollisions@@YGXHHHH@Z
_fcollisionsurface=?bbCollisionSurface@@YGPAXPAVObject@@H@Z
_fcollisiontime=?bbCollisionTime@@YGMPAVObject@@H@Z
_fcollisiontriangle=?bbCollisionTriangle@@YGHPAVObject@@H@Z
_fcollisionx=?bbCollisionX@@YGMPAVObject@@H@Z
_fcollisiony=?bbCollisionY@@YGMPAVObject@@H@Z
_fcollisionz=?bbCollisionZ@@YGMPAVObject@@H@Z
_fcolor=?bbColor@@YGXHHH@Z
_fcolorblue=?bbColorBlue@@YGHXZ
_fcolorgreen=?bbColorGreen@@YGHXZ
_fcolorred=?bbColorRed@@YGHXZ
_fcommandline=?bbCommandLine@@YGPAUBBStr@@XZ
_fcopybank=?bbCopyBank@@YGXPAUbbBank@@H0HH@Z
_fcopyentity=?bbCopyEntity@@YGPAVEntity@@PAV1@0@Z
_fcopyfile=?bbCopyFile@@YGXPAUBBStr@@0@Z
_fcopyimage=?bbCopyImage@@YGPAVbbImage@@PAV1@@Z
_fcopymesh=?bbCopyMesh@@YGPAVEntity@@PAVMeshModel@@PAV1@@Z
_fcopypixel=?bbCopyPixel@@YGXHHPAVgxCanvas@@HH0@Z
_fcopypixelfast=?bbCopyPixelFast@@YGXHHPAVgxCanvas@@HH0@Z
_fcopyrect=?bbCopyRect@@YGXHHHHHHPAVgxCanvas@@0@Z
_fcopystream=?bbCopyStream@@YGXPAVbbStream@@0H@Z
_fcos=?bbCos@@YGMM@Z
_fcountchildren=?bbCountChildren@@YGHPAVEntity@@@Z
_fcountcollisions=?bbCountCollisions@@YGHPAVObject@@@Z
_fcountgfxdrivers=?bbCountGfxDrivers@@YGHXZ
_fcountgfxmodes3d=?bbCountGfxModes3D@@YGHXZ
_fcountgfxmodes=?bbCountGfxModes3D@@YGHXZ
_fcounthostips=?bbCountHostIPs@@YGHPAUBBStr@@@Z
_fcountsurfaces=?bbCountSurfaces@@YGHPAVMeshModel@@@Z
_fcounttriangles=?bbCountTriangles@@YGHPAVSurface@@@Z
_fcountvertices=?bbCountVertices@@YGHPAVSurface@@@Z
_fcreatebank=?bbCreateBank@@YGPAUbbBank@@H@Z
_fcreatebrush=?bbCreateBrush@@YGPAVBrush@@MMM@Z
_fcreatecamera=?bbCreateCamera@@YGPAVEntity@@PAV1@@Z
_fcreatecone=?bbCreateCone@@YGPAVEntity@@HHPAV1@@Z
_fcreatecube=?bbCreateCube@@YGPAVEntity@@PAV1@@Z
_fcreatecylinder=?bbCreateCylinder@@YGPAVEntity@@HHPAV1@@Z
_fcreatedir=?bbCreateDir@@YGXPAUBBStr@@@Z
_fcreateimage=?bbCreateImage@@YGPAVbbImage@@HHH@Z
_fcreatelight=?bbCreateLight@@YGPAVEntity@@HPAV1@@Z
_fcreatelistener=?bbCreateListener@@YGPAVEntity@@PAV1@MMM@Z
_fcreatemesh=?bbCreateMesh@@YGPAVEntity@@PAV1@@Z
_fcreatemirror=?bbCreateMirror@@YGPAVEntity@@PAV1@@Z
_fcreatepivot=?bbCreatePivot@@YGPAVEntity@@PAV1@@Z
_fcreateplane=?bbCreatePlane@@YGPAVEntity@@HPAV1@@Z
_fcreatesphere=?bbCreateSphere@@YGPAVEntity@@HPAV1@@Z
_fcreatesprite=?bbCreateSprite@@YGPAVEntity@@PAV1@@Z
_fcreatesurface=?bbCreateSurface@@YGPAVSurface@@PAVMeshModel@@PAVBrush@@@Z
_fcreatetcpserver=?bbCreateTCPServer@@YGPAVTCPServer@@H@Z
_fcreateterrain=?bbCreateTerrain@@YGPAVEntity@@HPAV1@@Z
_fcreatetexture=?bbCreateTexture@@YGPAVTexture@@HHHH@Z
_fcreatetimer=?bbCreateTimer@@YGPAVgxTimer@@H@Z
_fcreateudpstream=?bbCreateUDPStream@@YGPAVUDPStream@@H@Z
_fcurrentdate=?bbCurrentDate@@YGPAUBBStr@@XZ
_fcurrentdir=?bbCurrentDir@@YGPAUBBStr@@XZ
_fcurrenttime=?bbCurrentTime@@YGPAUBBStr@@XZ
_fdebuglog=?bbDebugLog@@YGXPAUBBStr@@@Z
_fdelay=?bbDelay@@YGXH@Z
_fdeletedir=?bbDeleteDir@@YGXPAUBBStr@@@Z
_fdeletefile=?bbDeleteFile@@YGXPAUBBStr@@@Z
_fdeltapitch=?bbDeltaPitch@@YGMPAVEntity@@0@Z
_fdeltayaw=?bbDeltaYaw@@YGMPAVEntity@@0@Z
_fdirectinputenabled=?bbDirectInputEnabled@@YGHXZ
_fdither=?bbDither@@YGXH@Z
_fdottedip=?bbDottedIP@@YGPAUBBStr@@H@Z
_fdrawblock=?bbDrawBlock@@YGXPAVbbImage@@HHH@Z
_fdrawblockrect=?bbDrawBlockRect@@YGXPAVbbImage@@HHHHHHH@Z
_fdrawimage=?bbDrawImage@@YGXPAVbbImage@@HHH@Z
_fdrawimagerect=?bbDrawImageRect@@YGXPAVbbImage@@HHHHHHH@Z
_fdrawmovie=?bbDrawMovie@@YGHPAVgxMovie@@HHHH@Z
_femitsound=?bbEmitSound@@YGPAVgxChannel@@PAVgxSound@@PAVObject@@@Z
_fenabledirectinput=?bbEnableDirectInput@@YGXH@Z
_fend=?bbEnd@@YGXXZ
_fendgraphics=?bbEndGraphics@@YGXXZ
_fentityalpha=?bbEntityAlpha@@YGXPAVModel@@M@Z
_fentityautofade=?bbEntityAutoFade@@YGXPAVModel@@MM@Z
_fentityblend=?bbEntityBlend@@YGXPAVModel@@H@Z
_fentitybox=?bbEntityBox@@YGXPAVObject@@MMMMMM@Z
_fentityclass=?bbEntityClass@@YGPAUBBStr@@PAVEntity@@@Z
_fentitycollided=?bbEntityCollided@@YGPAVObject@@PAV1@H@Z
_fentitycolor=?bbEntityColor@@YGXPAVModel@@MMM@Z
_fentitydistance=?bbEntityDistance@@YGMPAVEntity@@0@Z
_fentityfx=?bbEntityFX@@YGXPAVModel@@H@Z
_fentityinview=?bbEntityInView@@YGHPAVEntity@@PAVCamera@@@Z
_fentityname=?bbEntityName@@YGPAUBBStr@@PAVEntity@@@Z
_fentityorder=?bbEntityOrder@@YGXPAVObject@@H@Z
_fentityparent=?bbEntityParent@@YGXPAVEntity@@0H@Z
_fentitypick=?bbEntityPick@@YGPAVEntity@@PAVObject@@M@Z
_fentitypickmode=?bbEntityPickMode@@YGXPAVObject@@HH@Z
_fentitypitch=?bbEntityPitch@@YGMPAVEntity@@H@Z
_fentityradius=?bbEntityRadius@@YGXPAVObject@@MM@Z
_fentityroll=?bbEntityRoll@@YGMPAVEntity@@H@Z
_fentityshininess=?bbEntityShininess@@YGXPAVModel@@M@Z
_fentitytexture=?bbEntityTexture@@YGXPAVModel@@PAVTexture@@HH@Z
_fentitytype=?bbEntityType@@YGXPAVObject@@HH@Z
_fentityvisible=?bbEntityVisible@@YGHPAVObject@@0@Z
_fentityx=?bbEntityX@@YGMPAVEntity@@H@Z
_fentityy=?bbEntityY@@YGMPAVEntity@@H@Z
_fentityyaw=?bbEntityYaw@@YGMPAVEntity@@H@Z
_fentityz=?bbEntityZ@@YGMPAVEntity@@H@Z
_feof=?bbEof@@YGHPAVbbStream@@@Z
_fexecfile=?bbExecFile@@YGHPAUBBStr@@@Z
_fexp=?bbExp@@YGMM@Z
_fextractanimseq=?bbExtractAnimSeq@@YGHPAVObject@@HHH@Z
_ffilepos=?bbFilePos@@YGHPAUbbFile@@@Z
_ffilesize=?bbFileSize@@YGHPAUBBStr@@@Z
_ffiletype=?bbFileType@@YGHPAUBBStr@@@Z
_ffindchild=?bbFindChild@@YGPAVEntity@@PAV1@PAUBBStr@@@Z
_ffindsurface=?bbFindSurface@@YGPAVSurface@@PAVMeshModel@@PAVBrush@@@Z
_ffitmesh=?bbFitMesh@@YGXPAVMeshModel@@MMMMMMH@Z
_fflip=?bbFlip@@YGXH@Z
_fflipmesh=?bbFlipMesh@@YGXPAVMeshModel@@@Z
_ffloor=?bbFloor@@YGMM@Z
_fflushjoy=?bbFlushJoy@@YGXXZ
_fflushkeys=?bbFlushKeys@@YGXXZ
_fflushmouse=?bbFlushMouse@@YGXXZ
_ffontheight=?bbFontHeight@@YGHXZ
_ffontwidth=?bbFontWidth@@YGHXZ
_ffreebank=?bbFreeBank@@YGXPAUbbBank@@@Z
_ffreebrush=?bbFreeBrush@@YGXPAVBrush@@@Z
_ffreeentity=?bbFreeEntity@@YGXPAVEntity@@@Z
_ffreefont=?bbFreeFont@@YGXPAVgxFont@@@Z
_ffreeimage=?bbFreeImage@@YGXPAVbbImage@@@Z
_ffreesound=?bbFreeSound@@YGXPAVgxSound@@@Z
_ffreetexture=?bbFreeTexture@@YGXPAVTexture@@@Z
_ffreetimer=?bbFreeTimer@@YGXPAVgxTimer@@@Z
_ffrontbuffer=?bbFrontBuffer@@YGPAVgxCanvas@@XZ
_fgammablue=?bbGammaBlue@@YGMH@Z
_fgammagreen=?bbGammaGreen@@YGMH@Z
_fgammared=?bbGammaRed@@YGMH@Z
_fgetbrushtexture=?bbGetBrushTexture@@YGPAVTexture@@PAVBrush@@H@Z
_fgetchild=?bbGetChild@@YGPAVEntity@@PAV1@H@Z
_fgetcolor=?bbGetColor@@YGXHH@Z
_fgetentitybrush=?bbGetEntityBrush@@YGPAVBrush@@PAVModel@@@Z
_fgetentitytype=?bbGetEntityType@@YGHPAVObject@@@Z
_fgetenv=?bbGetEnv@@YGPAUBBStr@@PAU1@@Z
_fgetjoy=?bbGetJoy@@YGHH@Z
_fgetkey=?bbGetKey@@YGHXZ
_fgetmatelement=?bbGetMatElement@@YGMPAVEntity@@HH@Z
_fgetmouse=?bbGetMouse@@YGHXZ
_fgetparent=?bbGetParent@@YGPAVEntity@@PAV1@@Z
_fgetsurface=?bbGetSurface@@YGPAVSurface@@PAVMeshModel@@H@Z
_fgetsurfacebrush=?bbGetSurfaceBrush@@YGPAVBrush@@PAVSurface@@@Z
_fgfxdriver3d=?bbGfxDriver3D@@YGHH@Z
_fgfxdrivercaps3d=?bbGfxDriverCaps3D@@YGHXZ
_fgfxdrivername=?bbGfxDriverName@@YGPAUBBStr@@H@Z
_fgfxmode3d=?bbGfxMode3D@@YGHH@Z
_fgfxmode3dexists=?bbGfxMode3DExists@@YGHHHH@Z
_fgfxmodedepth=?bbGfxModeDepth@@YGHH@Z
_fgfxmodeexists=?bbGfxModeExists@@YGHHHH@Z
_fgfxmodeheight=?bbGfxModeHeight@@YGHH@Z
_fgfxmodewidth=?bbGfxModeWidth@@YGHH@Z
_fgrabimage=?bbGrabImage@@YGXPAVbbImage@@HHH@Z
_fgraphics3d=?bbGraphics3D@@YGXHHHH@Z
_fgraphics=?bbGraphics3D@@YGXHHHH@Z
_fgraphicsbuffer=?bbGraphicsBuffer@@YGPAVgxCanvas@@XZ
_fgraphicsdepth=?bbGraphicsDepth@@YGHXZ
_fgraphicsheight=?bbGraphicsHeight@@YGHXZ
_fgraphicslost=?bbGraphicsLost@@YGHXZ
_fgraphicswidth=?bbGraphicsWidth@@YGHXZ
_fhandleimage=?bbHandleImage@@YGXPAVbbImage@@HH@Z
_fhandlesprite=?bbHandleSprite@@YGXPAVSprite@@MM@Z
_fhex=?bbHex@@YGPAUBBStr@@H@Z
_fhideentity=?bbHideEntity@@YGXPAVEntity@@@Z
_fhidepointer=?bbHidePointer@@YGXXZ
_fhostip=?bbHostIP@@YGHH@Z
_fhwmultitex=?bbHWMultiTex@@YGXH@Z
_fhwtexunits=?bbHWTexUnits@@YGHXZ
_fimagebuffer=?bbImageBuffer@@YGPAVgxCanvas@@PAVbbImage@@H@Z
_fimageheight=?bbImageHeight@@YGHPAVbbImage@@@Z
_fimagerectcollide=?bbImageRectCollide@@YGHPAVbbImage@@HHHHHHH@Z
_fimagerectoverlap=?bbImageRectOverlap@@YGHPAVbbImage@@HHHHHH@Z
_fimagescollide=?bbImagesCollide@@YGHPAVbbImage@@HHH0HHH@Z
_fimagesoverlap=?bbImagesOverlap@@YGHPAVbbImage@@HH0HH@Z
_fimagewidth=?bbImageWidth@@YGHPAVbbImage@@@Z
_fimagexhandle=?bbImageXHandle@@YGHPAVbbImage@@@Z
_fimageyhandle=?bbImageYHandle@@YGHPAVbbImage@@@Z
_finput=?bbInput@@YGPAUBBStr@@PAU1@@Z
_finstr=?bbInstr@@YGHPAUBBStr@@0H@Z
_fjoydown=?bbJoyDown@@YGHHH@Z
_fjoyhat=?bbJoyHat@@YGHH@Z
_fjoyhit=?bbJoyHit@@YGHHH@Z
_fjoypitch=?bbJoyPitch@@YGMH@Z
_fjoyroll=?bbJoyRoll@@YGMH@Z
_fjoytype=?bbJoyType@@YGHH@Z
_fjoyu=?bbJoyU@@YGMH@Z
_fjoyudir=?bbJoyUDir@@YGHH@Z
_fjoyv=?bbJoyV@@YGMH@Z
_fjoyvdir=?bbJoyVDir@@YGHH@Z
_fjoywait=?bbWaitJoy@@YGHH@Z
_fjoyx=?bbJoyX@@YGMH@Z
_fjoyxdir=?bbJoyXDir@@YGHH@Z
_fjoyy=?bbJoyY@@YGMH@Z
_fjoyyaw=?bbJoyYaw@@YGMH@Z
_fjoyydir=?bbJoyYDir@@YGHH@Z
_fjoyz=?bbJoyZ@@YGMH@Z
_fjoyzdir=?bbJoyZDir@@YGHH@Z
_fkeydown=?bbKeyDown@@YGHH@Z
_fkeyhit=?bbKeyHit@@YGHH@Z
_fleft=?bbLeft@@YGPAUBBStr@@PAU1@H@Z
_flen=?bbLen@@YGHPAUBBStr@@@Z
_flightcolor=?bbLightColor@@YGXPAVLight@@MMM@Z
_flightconeangles=?bbLightConeAngles@@YGXPAVLight@@MM@Z
_flightmesh=?bbLightMesh@@YGXPAVMeshModel@@MMMMMMM@Z
_flightrange=?bbLightRange@@YGXPAVLight@@M@Z
_fline=?bbLine@@YGXHHHH@Z
_flinepick=?bbLinePick@@YGPAVEntity@@MMMMMMM@Z
_fload3dsound=?bbLoad3DSound@@YGPAVgxSound@@PAUBBStr@@@Z
_floadanimimage=?bbLoadAnimImage@@YGPAVbbImage@@PAUBBStr@@HHHH@Z
_floadanimmesh=?bbLoadAnimMesh@@YGPAVEntity@@PAUBBStr@@PAV1@@Z
_floadanimseq=?bbLoadAnimSeq@@YGHPAVObject@@PAUBBStr@@@Z
_floadanimtexture=?bbLoadAnimTexture@@YGPAVTexture@@PAUBBStr@@HHHHH@Z
_floadbrush=?bbLoadBrush@@YGPAVBrush@@PAUBBStr@@HMM@Z
_floadbsp=?bbLoadBSP@@YGPAVEntity@@PAUBBStr@@MPAV1@@Z
_floadbuffer=?bbLoadBuffer@@YGHPAVgxCanvas@@PAUBBStr@@@Z
_floadermatrix=?bbLoaderMatrix@@YGXPAUBBStr@@MMMMMMMMM@Z
_floadfont=?bbLoadFont@@YGPAVgxFont@@PAUBBStr@@HHHH@Z
_floadimage=?bbLoadImage@@YGPAVbbImage@@PAUBBStr@@@Z
_floadmd2=?bbLoadMD2@@YGPAVEntity@@PAUBBStr@@PAV1@@Z
_floadmesh=?bbLoadMesh@@YGPAVEntity@@PAUBBStr@@PAV1@@Z
_floadsound=?bbLoadSound@@YGPAVgxSound@@PAUBBStr@@@Z
_floadsprite=?bbLoadSprite@@YGPAVEntity@@PAUBBStr@@HPAV1@@Z
_floadterrain=?bbLoadTerrain@@YGPAVEntity@@PAUBBStr@@PAV1@@Z
_floadtexture=?bbLoadTexture@@YGPAVTexture@@PAUBBStr@@H@Z
_flocate=?bbLocate@@YGXHH@Z
_flockbuffer=?bbLockBuffer@@YGXPAVgxCanvas@@@Z
_flog10=?bbLog10@@YGMM@Z
_flog=?bbLog10@@YGMM@Z
_floopsound=?bbLoopSound@@YGXPAVgxSound@@@Z
_flower=?bbLower@@YGPAUBBStr@@PAU1@@Z
_flset=?bbLSet@@YGPAUBBStr@@PAU1@H@Z
_fmaskimage=?bbMaskImage@@YGXPAVbbImage@@HHH@Z
_fmd2animating=?bbMD2Animating@@YGHPAVMD2Model@@@Z
_fmd2animlength=?bbMD2AnimLength@@YGHPAVMD2Model@@@Z
_fmd2animtime=?bbMD2AnimTime@@YGMPAVMD2Model@@@Z
_fmeshcullbox=?bbMeshCullBox@@YGXPAVMeshModel@@MMMMMM@Z
_fmeshdepth=?bbMeshDepth@@YGMPAVMeshModel@@@Z
_fmeshesintersect=?bbMeshesIntersect@@YGHPAVMeshModel@@0@Z
_fmeshheight=?bbMeshHeight@@YGMPAVMeshModel@@@Z
_fmeshwidth=?bbMeshWidth@@YGMPAVMeshModel@@@Z
_fmid=?bbMid@@YGPAUBBStr@@PAU1@HH@Z
_fmidhandle=?bbMidHandle@@YGXPAVbbImage@@@Z
_fmillisecs=?bbMilliSecs@@YGHXZ
_fmodifyterrain=?bbModifyTerrain@@YGXPAVTerrain@@HHMH@Z
_fmousedown=?bbMouseDown@@YGHH@Z
_fmousehit=?bbMouseHit@@YGHH@Z
_fmousewait=?bbWaitMouse@@YGHXZ
_fmousex=?bbMouseX@@YGHXZ
_fmousexspeed=?bbMouseXSpeed@@YGHXZ
_fmousey=?bbMouseY@@YGHXZ
_fmouseyspeed=?bbMouseYSpeed@@YGHXZ
_fmousez=?bbMouseZ@@YGHXZ
_fmousezspeed=?bbMouseZSpeed@@YGHXZ
_fmoveentity=?bbMoveEntity@@YGXPAVEntity@@MMM@Z
_fmovemouse=?bbMoveMouse@@YGXHH@Z
_fmovieheight=?bbMovieHeight@@YGHPAVgxMovie@@@Z
_fmovieplaying=?bbMoviePlaying@@YGHPAVgxMovie@@@Z
_fmoviewidth=?bbMovieWidth@@YGHPAVgxMovie@@@Z
_fnameentity=?bbNameEntity@@YGXPAVEntity@@PAUBBStr@@@Z
_fnextfile=?bbNextFile@@YGPAUBBStr@@PAVgxDir@@@Z
_fopenfile=?bbOpenFile@@YGPAUbbFile@@PAUBBStr@@@Z
_fopenmovie=?bbOpenMovie@@YGPAVgxMovie@@PAUBBStr@@@Z
_fopentcpstream=?bbOpenTCPStream@@YGPAVTCPStream@@PAUBBStr@@HH@Z
_forigin=?bbOrigin@@YGXHH@Z
_foval=?bbOval@@YGXHHHHH@Z
_fpaintentity=?bbPaintEntity@@YGXPAVModel@@PAVBrush@@@Z
_fpaintmesh=?bbPaintMesh@@YGXPAVMeshModel@@PAVBrush@@@Z
_fpaintsurface=?bbPaintSurface@@YGXPAVSurface@@PAVBrush@@@Z
_fpausechannel=?bbPauseChannel@@YGXPAVgxChannel@@@Z
_fpeekbyte=?bbPeekByte@@YGHPAUbbBank@@H@Z
_fpeekfloat=?bbPeekFloat@@YGMPAUbbBank@@H@Z
_fpeekint=?bbPeekInt@@YGHPAUbbBank@@H@Z
_fpeekshort=?bbPeekShort@@YGHPAUbbBank@@H@Z
_fpickedentity=?bbPickedEntity@@YGPAVObject@@XZ
_fpickednx=?bbPickedNX@@YGMXZ
_fpickedny=?bbPickedNY@@YGMXZ
_fpickednz=?bbPickedNZ@@YGMXZ
_fpickedsurface=?bbPickedSurface@@YGPAXXZ
_fpickedtime=?bbPickedTime@@YGMXZ
_fpickedtriangle=?bbPickedTriangle@@YGHXZ
_fpickedx=?bbPickedX@@YGMXZ
_fpickedy=?bbPickedY@@YGMXZ
_fpickedz=?bbPickedZ@@YGMXZ
_fplaycdtrack=?bbPlayCDTrack@@YGPAVgxChannel@@HH@Z
_fplaymusic=?bbPlayMusic@@YGPAVgxChannel@@PAUBBStr@@@Z
_fplaysound=?bbPlaySound@@YGPAVgxChannel@@PAVgxSound@@@Z
_fplot=?bbPlot@@YGXHH@Z
_fpointentity=?bbPointEntity@@YGXPAVEntity@@0M@Z
_fpokebyte=?bbPokeByte@@YGXPAUbbBank@@HH@Z
_fpokefloat=?bbPokeFloat@@YGXPAUbbBank@@HM@Z
_fpokeint=?bbPokeInt@@YGXPAUbbBank@@HH@Z
_fpokeshort=?bbPokeShort@@YGXPAUbbBank@@HH@Z
_fpositionentity=?bbPositionEntity@@YGXPAVEntity@@MMMH@Z
_fpositionmesh=?bbPositionMesh@@YGXPAVMeshModel@@MMM@Z
_fpositiontexture=?bbPositionTexture@@YGXPAVTexture@@MM@Z
_fprint=?bbPrint@@YGXPAUBBStr@@@Z
_fprojectedx=?bbProjectedX@@YGMXZ
_fprojectedy=?bbProjectedY@@YGMXZ
_fprojectedz=?bbProjectedZ@@YGMXZ
_frand=?bbRand@@YGHHH@Z
_freadavail=?bbReadAvail@@YGHPAVbbStream@@@Z
_freadbyte=?bbReadByte@@YGHPAVbbStream@@@Z
_freadbytes=?bbReadBytes@@YGHPAUbbBank@@PAVbbStream@@HH@Z
_freaddir=?bbReadDir@@YGPAVgxDir@@PAUBBStr@@@Z
_freadfile=?bbReadFile@@YGPAUbbFile@@PAUBBStr@@@Z
_freadfloat=?bbReadFloat@@YGMPAVbbStream@@@Z
_freadint=?bbReadInt@@YGHPAVbbStream@@@Z
_freadline=?bbReadLine@@YGPAUBBStr@@PAVbbStream@@@Z
_freadpixel=?bbReadPixel@@YGHHHPAVgxCanvas@@@Z
_freadpixelfast=?bbReadPixelFast@@YGHHHPAVgxCanvas@@@Z
_freadshort=?bbReadShort@@YGHPAVbbStream@@@Z
_freadstring=?bbReadString@@YGPAUBBStr@@PAVbbStream@@@Z
_frect=?bbRect@@YGXHHHHH@Z
_frectsoverlap=?bbRectsOverlap@@YGHHHHHHHHH@Z
_frecvudpmsg=?bbRecvUDPMsg@@YGHPAVUDPStream@@@Z
_frenderworld=?bbRenderWorld@@YGXM@Z
_freplace=?bbReplace@@YGPAUBBStr@@PAU1@00@Z
_fresetentity=?bbResetEntity@@YGXPAVObject@@@Z
_fresizebank=?bbResizeBank@@YGXPAUbbBank@@H@Z
_fresizeimage=?bbResizeImage@@YGXPAVbbImage@@MM@Z
_fresumechannel=?bbResumeChannel@@YGXPAVgxChannel@@@Z
_fright=?bbRight@@YGPAUBBStr@@PAU1@H@Z
_frnd=?bbRnd@@YGMMM@Z
_frndseed=?bbRndSeed@@YGHXZ
_frotateentity=?bbRotateEntity@@YGXPAVEntity@@MMMH@Z
_frotateimage=?bbRotateImage@@YGXPAVbbImage@@M@Z
_frotatemesh=?bbRotateMesh@@YGXPAVMeshModel@@MMM@Z
_frotatesprite=?bbRotateSprite@@YGXPAVSprite@@M@Z
_frotatetexture=?bbRotateTexture@@YGXPAVTexture@@M@Z
_frset=?bbRSet@@YGPAUBBStr@@PAU1@H@Z
_fruntimeerror=?bbRuntimeError@@YGXPAUBBStr@@@Z
_fruntimestats=?bbRuntimeStats@@YGXXZ
_fsavebuffer=?bbSaveBuffer@@YGHPAVgxCanvas@@PAUBBStr@@@Z
_fsaveimage=?bbSaveImage@@YGHPAVbbImage@@PAUBBStr@@H@Z
_fscaleentity=?bbScaleEntity@@YGXPAVEntity@@MMMH@Z
_fscaleimage=?bbScaleImage@@YGXPAVbbImage@@MM@Z
_fscalemesh=?bbScaleMesh@@YGXPAVMeshModel@@MMM@Z
_fscalesprite=?bbScaleSprite@@YGXPAVSprite@@MM@Z
_fscaletexture=?bbScaleTexture@@YGXPAVTexture@@MM@Z
_fscanline=?bbScanLine@@YGHXZ
_fseedrnd=?bbSeedRnd@@YGXH@Z
_fseekfile=?bbSeekFile@@YGHPAUbbFile@@H@Z
_fsendudpmsg=?bbSendUDPMsg@@YGXPAVUDPStream@@HH@Z
_fsetanimkey=?bbSetAnimKey@@YGXPAVObject@@HHHH@Z
_fsetanimtime=?bbSetAnimTime@@YGXPAVObject@@MH@Z
_fsetbuffer=?bbSetBuffer@@YGXPAVgxCanvas@@@Z
_fsetcubeface=?bbSetCubeFace@@YGXPAVTexture@@H@Z
_fsetcubemode=?bbSetCubeMode@@YGXPAVTexture@@H@Z
_fsetenv=?bbSetEnv@@YGXPAUBBStr@@0@Z
_fsetfont=?bbSetFont@@YGXPAVgxFont@@@Z
_fsetgamma=?bbSetGamma@@YGXHHHMMM@Z
_fsetgfxdriver=?bbSetGfxDriver@@YGXH@Z
_fshowentity=?bbShowEntity@@YGXPAVEntity@@@Z
_fshowpointer=?bbShowPointer@@YGXXZ
_fsin=?bbSin@@YGMM@Z
_fsoundpan=?bbSoundPan@@YGXPAVgxSound@@M@Z
_fsoundpitch=?bbSoundPitch@@YGXPAVgxSound@@H@Z
_fsoundvolume=?bbSoundVolume@@YGXPAVgxSound@@M@Z
_fspriteviewmode=?bbSpriteViewMode@@YGXPAVSprite@@H@Z
_fsqr=?bbSqr@@YGMM@Z
_fstats3d=?bbStats3D@@YGMH@Z
_fstop=?bbStop@@YGXXZ
_fstopchannel=?bbStopChannel@@YGXPAVgxChannel@@@Z
_fstring=?bbString@@YGPAUBBStr@@PAU1@H@Z
_fstringheight=?bbStringHeight@@YGHPAUBBStr@@@Z
_fstringwidth=?bbStringWidth@@YGHPAUBBStr@@@Z
_fsystemproperty=?bbSystemProperty@@YGPAUBBStr@@PAU1@@Z
_ftan=?bbTan@@YGMM@Z
_ftcpstreamip=?bbTCPStreamIP@@YGHPAVTCPStream@@@Z
_ftcpstreamport=?bbTCPStreamPort@@YGHPAVTCPStream@@@Z
_ftcptimeouts=?bbTCPTimeouts@@YGXHH@Z
_fterraindetail=?bbTerrainDetail@@YGXPAVTerrain@@HH@Z
_fterrainheight=?bbTerrainHeight@@YGMPAVTerrain@@HH@Z
_fterrainshading=?bbTerrainShading@@YGXPAVTerrain@@H@Z
_fterrainsize=?bbTerrainSize@@YGHPAVTerrain@@@Z
_fterrainx=?bbTerrainX@@YGMPAVTerrain@@MMM@Z
_fterrainy=?bbTerrainY@@YGMPAVTerrain@@MMM@Z
_fterrainz=?bbTerrainZ@@YGMPAVTerrain@@MMM@Z
_ftext=?bbText@@YGXHHPAUBBStr@@HH@Z
_ftextureblend=?bbTextureBlend@@YGXPAVTexture@@H@Z
_ftexturebuffer=?bbTextureBuffer@@YGPAVgxCanvas@@PAVTexture@@H@Z
_ftexturecoords=?bbTextureCoords@@YGXPAVTexture@@H@Z
_ftexturefilter=?bbTextureFilter@@YGXPAUBBStr@@H@Z
_ftextureheight=?bbTextureHeight@@YGHPAVTexture@@@Z
_ftexturename=?bbTextureName@@YGPAUBBStr@@PAVTexture@@@Z
_ftexturewidth=?bbTextureWidth@@YGHPAVTexture@@@Z
_ftformedx=?bbTFormedX@@YGMXZ
_ftformedy=?bbTFormedY@@YGMXZ
_ftformedz=?bbTFormedZ@@YGMXZ
_ftformfilter=?bbTFormFilter@@YGXH@Z
_ftformimage=?bbTFormImage@@YGXPAVbbImage@@MMMM@Z
_ftformnormal=?bbTFormNormal@@YGXMMMPAVEntity@@0@Z
_ftformpoint=?bbTFormPoint@@YGXMMMPAVEntity@@0@Z
_ftformvector=?bbTFormVector@@YGXMMMPAVEntity@@0@Z
_ftileblock=?bbTileBlock@@YGXPAVbbImage@@HHH@Z
_ftileimage=?bbTileImage@@YGXPAVbbImage@@HHH@Z
_ftotalvidmem=?bbTotalVidMem@@YGHXZ
_ftranslateentity=?bbTranslateEntity@@YGXPAVEntity@@MMMH@Z
_ftrianglevertex=?bbTriangleVertex@@YGHPAVSurface@@HH@Z
_ftrim=?bbTrim@@YGPAUBBStr@@PAU1@@Z
_ftrisrendered=?bbTrisRendered@@YGHXZ
_fturnentity=?bbTurnEntity@@YGXPAVEntity@@MMMH@Z
_fudpmsgip=?bbUDPMsgIP@@YGHPAVUDPStream@@@Z
_fudpmsgport=?bbUDPMsgPort@@YGHPAVUDPStream@@@Z
_fudpstreamip=?bbUDPStreamIP@@YGHPAVUDPStream@@@Z
_fudpstreamport=?bbUDPStreamPort@@YGHPAVUDPStream@@@Z
_fudptimeouts=?bbUDPTimeouts@@YGXH@Z
_funlockbuffer=?bbUnlockBuffer@@YGXPAVgxCanvas@@@Z
_fupdategamma=?bbUpdateGamma@@YGXH@Z
_fupdatenormals=?bbUpdateNormals@@YGXPAVMeshModel@@@Z
_fupdateworld=?bbUpdateWorld@@YGXM@Z
_fupper=?bbUpper@@YGPAUBBStr@@PAU1@@Z
_fvectorpitch=?bbVectorPitch@@YGMMMM@Z
_fvectoryaw=?bbVectorYaw@@YGMMMM@Z
_fvertexalpha=?bbVertexAlpha@@YGMPAVSurface@@H@Z
_fvertexblue=?bbVertexBlue@@YGMPAVSurface@@H@Z
_fvertexcolor=?bbVertexColor@@YGXPAVSurface@@HMMMM@Z
_fvertexcoords=?bbVertexCoords@@YGXPAVSurface@@HMMM@Z
_fvertexgreen=?bbVertexGreen@@YGMPAVSurface@@H@Z
_fvertexnormal=?bbVertexNormal@@YGXPAVSurface@@HMMM@Z
_fvertexnx=?bbVertexNX@@YGMPAVSurface@@H@Z
_fvertexny=?bbVertexNY@@YGMPAVSurface@@H@Z
_fvertexnz=?bbVertexNZ@@YGMPAVSurface@@H@Z
_fvertexred=?bbVertexRed@@YGMPAVSurface@@H@Z
_fvertextexcoords=?bbVertexTexCoords@@YGXPAVSurface@@HMMMH@Z
_fvertexu=?bbVertexU@@YGMPAVSurface@@HH@Z
_fvertexv=?bbVertexV@@YGMPAVSurface@@HH@Z
_fvertexw=?bbVertexW@@YGMPAVSurface@@HH@Z
_fvertexx=?bbVertexX@@YGMPAVSurface@@H@Z
_fvertexy=?bbVertexY@@YGMPAVSurface@@H@Z
_fvertexz=?bbVertexZ@@YGMPAVSurface@@H@Z
_fviewport=?bbViewport@@YGXHHHH@Z
_fvwait=?bbVWait@@YGXH@Z
_fwaitjoy=?bbWaitJoy@@YGHH@Z
_fwaitkey=?bbWaitKey@@YGHXZ
_fwaitmouse=?bbWaitMouse@@YGHXZ
_fwaittimer=?bbWaitTimer@@YGHPAVgxTimer@@@Z
_fwbuffer=?bbWBuffer@@YGXH@Z
_fwindowed3d=?bbWindowed3D@@YGHXZ
_fwireframe=?bbWireFrame@@YGXH@Z
_fwrite=?bbWrite@@YGXPAUBBStr@@@Z
_fwritebyte=?bbWriteByte@@YGXPAVbbStream@@H@Z
_fwritebytes=?bbWriteBytes@@YGHPAUbbBank@@PAVbbStream@@HH@Z
_fwritefile=?bbWriteFile@@YGPAUbbFile@@PAUBBStr@@@Z
_fwritefloat=?bbWriteFloat@@YGXPAVbbStream@@M@Z
_fwriteint=?bbWriteInt@@YGXPAVbbStream@@H@Z
_fwriteline=?bbWriteLine@@YGXPAVbbStream@@PAUBBStr@@@Z
_fwritepixel=?bbWritePixel@@YGXHHHPAVgxCanvas@@@Z
_fwritepixelfast=?bbWritePixelFast@@YGXHHHPAVgxCanvas@@@Z
_fwriteshort=?bbWriteShort@@YGXPAVbbStream@@H@Z
_fwritestring=?bbWriteString@@YGXPAVbbStream@@PAUBBStr@@@Z